; Function Attrs: nounwind uwtable
define void @Bac_ManWriteBlifNtk(ptr noundef captures(none) %0, ptr noundef readonly captures(none) %1) local_unnamed_addr #0 {
  %.val = load ptr, ptr %1, align 8, !tbaa !30
  %3 = getelementptr i8, ptr %1, i64 8
  %.val13 = load i32, ptr %3, align 8, !tbaa !44
  %4 = getelementptr i8, ptr %.val, i64 16
  %.val.val = load ptr, ptr %4, align 8, !tbaa !33
  %5 = tail call ptr @Abc_NamStr(ptr noundef %.val.val, i32 noundef %.val13) #5
  %6 = tail call i32 (ptr, ptr, ...) @fprintf(ptr noundef %0, ptr noundef nonnull @.str.10, ptr noundef %5) #5
  %7 = tail call i64 @fwrite(ptr nonnull @.str.11, i64 7, i64 1, ptr %0)
  %8 = getelementptr i8, ptr %1, i64 36
  %.val23.i = load i32, ptr %8, align 4, !tbaa !17
  %9 = icmp sgt i32 %.val23.i, 0
  br i1 %9, label %.lr.ph.i, label %Bac_ManWriteBlifArray.exit

.lr.ph.i:                                         ; preds = %2
  %10 = getelementptr i8, ptr %1, i64 40
  %11 = getelementptr i8, ptr %1, i64 88
  %12 = getelementptr i8, ptr %1, i64 136
  %13 = getelementptr i8, ptr %1, i64 104
  br label %14

14:                                               ; preds = %Bac_ObjNameStr.exit.i, %.lr.ph.i
  %indvars.iv.i = phi i64 [ 0, %.lr.ph.i ], [ %indvars.iv.next.i, %Bac_ObjNameStr.exit.i ]
  %.val13.i = load ptr, ptr %10, align 8, !tbaa !18
  %15 = getelementptr inbounds nuw i32, ptr %.val13.i, i64 %indvars.iv.i
  %16 = load i32, ptr %15, align 4, !tbaa !19
  %.val.i.i.i.i = load ptr, ptr %11, align 8, !tbaa !26
  %17 = sext i32 %16 to i64
  %18 = getelementptr inbounds i8, ptr %.val.i.i.i.i, i64 %17
  %19 = load i8, ptr %18, align 1, !tbaa !29
  %20 = and i8 %19, -4
  %narrow.i.not.i.i.i.i = icmp eq i8 %20, 4
  br i1 %narrow.i.not.i.i.i.i, label %21, label %26

21:                                               ; preds = %14
  %.val6.i.i.i.i = load ptr, ptr %13, align 8, !tbaa !18
  %22 = getelementptr inbounds i32, ptr %.val6.i.i.i.i, i64 %17
  %23 = load i32, ptr %22, align 4, !tbaa !19
  %.val7.i.i.i.i = load ptr, ptr %12, align 8, !tbaa !18
  %24 = sext i32 %23 to i64
  %25 = getelementptr inbounds i32, ptr %.val7.i.i.i.i, i64 %24
  br label %Bac_ObjNameStr.exit.i

26:                                               ; preds = %14
  %.val8.i.i.i.i = load ptr, ptr %12, align 8, !tbaa !18
  %27 = getelementptr inbounds i32, ptr %.val8.i.i.i.i, i64 %17
  br label %Bac_ObjNameStr.exit.i

Bac_ObjNameStr.exit.i:                            ; preds = %26, %21
  %.in.i.i.i.i = phi ptr [ %25, %21 ], [ %27, %26 ]
  %28 = load i32, ptr %.in.i.i.i.i, align 4, !tbaa !19
  %29 = ashr i32 %28, 2
  %.val.i.i = load ptr, ptr %1, align 8, !tbaa !30
  %30 = getelementptr i8, ptr %.val.i.i, i64 16
  %.val.val.i.i = load ptr, ptr %30, align 8, !tbaa !33
  %31 = tail call ptr @Abc_NamStr(ptr noundef %.val.val.i.i, i32 noundef range(i32 -536870912, 536870912) %29) #5
  %32 = tail call i32 (ptr, ptr, ...) @fprintf(ptr noundef %0, ptr noundef nonnull @.str.5, ptr noundef %31) #5
  %indvars.iv.next.i = add nuw nsw i64 %indvars.iv.i, 1
  %.val.i = load i32, ptr %8, align 4, !tbaa !17
  %33 = sext i32 %.val.i to i64
  %34 = icmp slt i64 %indvars.iv.next.i, %33
  br i1 %34, label %14, label %Bac_ManWriteBlifArray.exit, !llvm.loop !38

Bac_ManWriteBlifArray.exit:                       ; preds = %Bac_ObjNameStr.exit.i, %2
  %fputc.i = tail call i32 @fputc(i32 10, ptr %0)
  %35 = tail call i64 @fwrite(ptr nonnull @.str.12, i64 8, i64 1, ptr %0)
  %36 = getelementptr i8, ptr %1, i64 52
  %.val23.i14 = load i32, ptr %36, align 4, !tbaa !17
  %37 = icmp sgt i32 %.val23.i14, 0
  br i1 %37, label %.lr.ph.i16, label %Bac_ManWriteBlifArray.exit30

.lr.ph.i16:                                       ; preds = %Bac_ManWriteBlifArray.exit
  %38 = getelementptr i8, ptr %1, i64 56
  %39 = getelementptr i8, ptr %1, i64 88
  %40 = getelementptr i8, ptr %1, i64 136
  %41 = getelementptr i8, ptr %1, i64 104
  br label %42

42:                                               ; preds = %Bac_ObjNameStr.exit.i22, %.lr.ph.i16
  %indvars.iv.i17 = phi i64 [ 0, %.lr.ph.i16 ], [ %indvars.iv.next.i26, %Bac_ObjNameStr.exit.i22 ]
  %.val13.i18 = load ptr, ptr %38, align 8, !tbaa !18
  %43 = getelementptr inbounds nuw i32, ptr %.val13.i18, i64 %indvars.iv.i17
  %44 = load i32, ptr %43, align 4, !tbaa !19
  %.val.i.i.i.i19 = load ptr, ptr %39, align 8, !tbaa !26
  %45 = sext i32 %44 to i64
  %46 = getelementptr inbounds i8, ptr %.val.i.i.i.i19, i64 %45
  %47 = load i8, ptr %46, align 1, !tbaa !29
  %48 = and i8 %47, -4
  %narrow.i.not.i.i.i.i20 = icmp eq i8 %48, 4
  br i1 %narrow.i.not.i.i.i.i20, label %49, label %54

49:                                               ; preds = %42
  %.val6.i.i.i.i28 = load ptr, ptr %41, align 8, !tbaa !18
  %50 = getelementptr inbounds i32, ptr %.val6.i.i.i.i28, i64 %45
  %51 = load i32, ptr %50, align 4, !tbaa !19
  %.val7.i.i.i.i29 = load ptr, ptr %40, align 8, !tbaa !18
  %52 = sext i32 %51 to i64
  %53 = getelementptr inbounds i32, ptr %.val7.i.i.i.i29, i64 %52
  br label %Bac_ObjNameStr.exit.i22

54:                                               ; preds = %42
  %.val8.i.i.i.i21 = load ptr, ptr %40, align 8, !tbaa !18
  %55 = getelementptr inbounds i32, ptr %.val8.i.i.i.i21, i64 %45
  br label %Bac_ObjNameStr.exit.i22

Bac_ObjNameStr.exit.i22:                          ; preds = %54, %49
  %.in.i.i.i.i23 = phi ptr [ %53, %49 ], [ %55, %54 ]
  %56 = load i32, ptr %.in.i.i.i.i23, align 4, !tbaa !19
  %57 = ashr i32 %56, 2
  %.val.i.i24 = load ptr, ptr %1, align 8, !tbaa !30
  %58 = getelementptr i8, ptr %.val.i.i24, i64 16
  %.val.val.i.i25 = load ptr, ptr %58, align 8, !tbaa !33
  %59 = tail call ptr @Abc_NamStr(ptr noundef %.val.val.i.i25, i32 noundef range(i32 -536870912, 536870912) %57) #5
  %60 = tail call i32 (ptr, ptr, ...) @fprintf(ptr noundef %0, ptr noundef nonnull @.str.5, ptr noundef %59) #5
  %indvars.iv.next.i26 = add nuw nsw i64 %indvars.iv.i17, 1
  %.val.i27 = load i32, ptr %36, align 4, !tbaa !17
  %61 = sext i32 %.val.i27 to i64
  %62 = icmp slt i64 %indvars.iv.next.i26, %61
  br i1 %62, label %42, label %Bac_ManWriteBlifArray.exit30, !llvm.loop !38

Bac_ManWriteBlifArray.exit30:                     ; preds = %Bac_ObjNameStr.exit.i22, %Bac_ManWriteBlifArray.exit
  %fputc.i15 = tail call i32 @fputc(i32 10, ptr %0)
  tail call void @Bac_ManWriteBlifLines(ptr noundef %0, ptr noundef nonnull %1)
  %63 = tail call i64 @fwrite(ptr nonnull @.str.13, i64 6, i64 1, ptr %0)
  ret void
}